target datalayout = "e-m:e-p270:32:32-p271:32:32-p272:64:64-i64:64-i128:128-f80:128-n8:16:32:64-S128"
target triple = "x86_64-pc-linux-gnu"

%struct._object = type { %union.anon, ptr }
%union.anon = type { i64 }
%struct._structmodulestate = type { ptr, ptr, ptr, ptr }
%struct.PyModuleObject = type { %struct._object, ptr, ptr, ptr, ptr, ptr }
%struct.anon = type { i32, i32 }
%struct.PyDictObject = type { %struct._object, i64, i64, ptr, ptr }

; Function Attrs: alwaysinline nounwind uwtable
define internal i32 @_Py_IsImmortal(ptr noundef %0) #4 {
  %2 = alloca ptr, align 8
  store ptr %0, ptr %2, align 8, !tbaa !3
  %3 = load ptr, ptr %2, align 8, !tbaa !3
  %4 = getelementptr inbounds nuw %struct._object, ptr %3, i32 0, i32 0
  %5 = getelementptr inbounds nuw %struct.anon, ptr %4, i32 0, i32 0
  %6 = load i32, ptr %5, align 8, !tbaa !32
  %7 = icmp slt i32 %6, 0
  %8 = zext i1 %7 to i32
  ret i32 %8
}

; Function Attrs: inlinehint nounwind uwtable
define internal ptr @_PyModule_GetState(ptr noundef %0) #2 {
  %2 = alloca ptr, align 8
  store ptr %0, ptr %2, align 8, !tbaa !3
  %3 = load ptr, ptr %2, align 8, !tbaa !3
  %4 = getelementptr inbounds nuw %struct.PyModuleObject, ptr %3, i32 0, i32 3
  %5 = load ptr, ptr %4, align 8, !tbaa !24
  ret ptr %5
}

; Function Attrs: inlinehint nounwind uwtable
define internal i64 @PyDict_GET_SIZE(ptr noundef %0) #2 {
  %2 = alloca ptr, align 8
  %3 = alloca ptr, align 8
  store ptr %0, ptr %2, align 8, !tbaa !3
  call void @llvm.lifetime.start.p0(i64 8, ptr %3) #8
  %4 = load ptr, ptr %2, align 8, !tbaa !3
  store ptr %4, ptr %3, align 8, !tbaa !8
  %5 = load ptr, ptr %3, align 8, !tbaa !8
  %6 = getelementptr inbounds nuw %struct.PyDictObject, ptr %5, i32 0, i32 1
  %7 = load i64, ptr %6, align 8, !tbaa !33
  call void @llvm.lifetime.end.p0(i64 8, ptr %3) #8
  ret i64 %7
}

; Function Attrs: alwaysinline nounwind uwtable
define internal void @Py_DECREF(ptr noundef %0) #4 {
  %2 = alloca ptr, align 8
  store ptr %0, ptr %2, align 8, !tbaa !3
  %3 = load ptr, ptr %2, align 8, !tbaa !3
  %4 = call i32 @_Py_IsImmortal(ptr noundef %3)
  %5 = icmp ne i32 %4, 0
  br i1 %5, label %6, label %7

6:                                                ; preds = %1
  br label %16

7:                                                ; preds = %1
  %8 = load ptr, ptr %2, align 8, !tbaa !3
  %9 = getelementptr inbounds nuw %struct._object, ptr %8, i32 0, i32 0
  %10 = getelementptr inbounds nuw %struct.anon, ptr %9, i32 0, i32 0
  %11 = load i32, ptr %10, align 8, !tbaa !32
  %12 = add i32 %11, -1
  store i32 %12, ptr %10, align 8, !tbaa !32
  %13 = icmp eq i32 %12, 0
  br i1 %13, label %14, label %16

14:                                               ; preds = %7
  %15 = load ptr, ptr %2, align 8, !tbaa !3
  call void @_Py_Dealloc(ptr noundef %15)
  br label %16

16:                                               ; preds = %6, %14, %7
  ret void
}

; Function Attrs: inlinehint nounwind uwtable
define internal ptr @get_struct_state(ptr noundef %0) #2 {
  %2 = alloca ptr, align 8
  %3 = alloca ptr, align 8
  store ptr %0, ptr %2, align 8, !tbaa !3
  call void @llvm.lifetime.start.p0(i64 8, ptr %3) #8
  %4 = load ptr, ptr %2, align 8, !tbaa !3
  %5 = call ptr @_PyModule_GetState(ptr noundef %4)
  store ptr %5, ptr %3, align 8, !tbaa !8
  %6 = load ptr, ptr %3, align 8, !tbaa !8
  call void @llvm.lifetime.end.p0(i64 8, ptr %3) #8
  ret ptr %6
}

; Function Attrs: nounwind uwtable
define internal i32 @cache_struct_converter(ptr noundef %0, ptr noundef %1, ptr noundef %2) #0 {
  %4 = alloca i32, align 4
  %5 = alloca ptr, align 8
  %6 = alloca ptr, align 8
  %7 = alloca ptr, align 8
  %8 = alloca ptr, align 8
  %9 = alloca ptr, align 8
  %10 = alloca ptr, align 8
  %11 = alloca ptr, align 8
  %12 = alloca i32, align 4
  store ptr %0, ptr %5, align 8, !tbaa !3
  store ptr %1, ptr %6, align 8, !tbaa !3
  store ptr %2, ptr %7, align 8, !tbaa !8
  call void @llvm.lifetime.start.p0(i64 8, ptr %8) #8
  call void @llvm.lifetime.start.p0(i64 8, ptr %9) #8
  %13 = load ptr, ptr %5, align 8, !tbaa !3
  %14 = call ptr @get_struct_state(ptr noundef %13)
  store ptr %14, ptr %9, align 8, !tbaa !8
  %15 = load ptr, ptr %6, align 8, !tbaa !3
  %16 = icmp eq ptr %15, null
  br i1 %16, label %17, label %26

17:                                               ; preds = %3
  br label %18

18:                                               ; preds = %17
  call void @llvm.lifetime.start.p0(i64 8, ptr %10) #8
  %19 = load ptr, ptr %7, align 8, !tbaa !8
  store ptr %19, ptr %10, align 8, !tbaa !8
  call void @llvm.lifetime.start.p0(i64 8, ptr %11) #8
  %20 = load ptr, ptr %10, align 8, !tbaa !8
  %21 = load ptr, ptr %20, align 8, !tbaa !8
  store ptr %21, ptr %11, align 8, !tbaa !8
  %22 = load ptr, ptr %10, align 8, !tbaa !8
  store ptr null, ptr %22, align 8, !tbaa !8
  %23 = load ptr, ptr %11, align 8, !tbaa !8
  call void @Py_DECREF(ptr noundef %23)
  call void @llvm.lifetime.end.p0(i64 8, ptr %11) #8
  call void @llvm.lifetime.end.p0(i64 8, ptr %10) #8
  br label %24

24:                                               ; preds = %18
  br label %25

25:                                               ; preds = %24
  store i32 1, ptr %4, align 4
  store i32 1, ptr %12, align 4
  br label %71

26:                                               ; preds = %3
  %27 = load ptr, ptr %9, align 8, !tbaa !8
  %28 = getelementptr inbounds nuw %struct._structmodulestate, ptr %27, i32 0, i32 0
  %29 = load ptr, ptr %28, align 8, !tbaa !9
  %30 = load ptr, ptr %6, align 8, !tbaa !3
  %31 = call i32 @PyDict_GetItemRef(ptr noundef %29, ptr noundef %30, ptr noundef %8)
  %32 = icmp slt i32 %31, 0
  br i1 %32, label %33, label %34

33:                                               ; preds = %26
  store i32 0, ptr %4, align 4
  store i32 1, ptr %12, align 4
  br label %71

34:                                               ; preds = %26
  %35 = load ptr, ptr %8, align 8, !tbaa !3
  %36 = icmp ne ptr %35, null
  br i1 %36, label %37, label %40

37:                                               ; preds = %34
  %38 = load ptr, ptr %8, align 8, !tbaa !3
  %39 = load ptr, ptr %7, align 8, !tbaa !8
  store ptr %38, ptr %39, align 8, !tbaa !8
  store i32 131072, ptr %4, align 4
  store i32 1, ptr %12, align 4
  br label %71

40:                                               ; preds = %34
  %41 = load ptr, ptr %9, align 8, !tbaa !8
  %42 = getelementptr inbounds nuw %struct._structmodulestate, ptr %41, i32 0, i32 1
  %43 = load ptr, ptr %42, align 8, !tbaa !13
  %44 = load ptr, ptr %6, align 8, !tbaa !3
  %45 = call ptr @PyObject_CallOneArg(ptr noundef %43, ptr noundef %44)
  store ptr %45, ptr %8, align 8, !tbaa !3
  %46 = load ptr, ptr %8, align 8, !tbaa !3
  %47 = icmp ne ptr %46, null
  br i1 %47, label %48, label %70

48:                                               ; preds = %40
  %49 = load ptr, ptr %9, align 8, !tbaa !8
  %50 = getelementptr inbounds nuw %struct._structmodulestate, ptr %49, i32 0, i32 0
  %51 = load ptr, ptr %50, align 8, !tbaa !9
  %52 = call i64 @PyDict_GET_SIZE(ptr noundef %51)
  %53 = icmp sge i64 %52, 100
  br i1 %53, label %54, label %58

54:                                               ; preds = %48
  %55 = load ptr, ptr %9, align 8, !tbaa !8
  %56 = getelementptr inbounds nuw %struct._structmodulestate, ptr %55, i32 0, i32 0
  %57 = load ptr, ptr %56, align 8, !tbaa !9
  call void @PyDict_Clear(ptr noundef %57)
  br label %58

58:                                               ; preds = %54, %48
  %59 = load ptr, ptr %9, align 8, !tbaa !8
  %60 = getelementptr inbounds nuw %struct._structmodulestate, ptr %59, i32 0, i32 0
  %61 = load ptr, ptr %60, align 8, !tbaa !9
  %62 = load ptr, ptr %6, align 8, !tbaa !3
  %63 = load ptr, ptr %8, align 8, !tbaa !3
  %64 = call i32 @PyDict_SetItem(ptr noundef %61, ptr noundef %62, ptr noundef %63)
  %65 = icmp eq i32 %64, -1
  br i1 %65, label %66, label %67

66:                                               ; preds = %58
  call void @PyErr_Clear()
  br label %67

67:                                               ; preds = %66, %58
  %68 = load ptr, ptr %8, align 8, !tbaa !3
  %69 = load ptr, ptr %7, align 8, !tbaa !8
  store ptr %68, ptr %69, align 8, !tbaa !8
  store i32 131072, ptr %4, align 4
  store i32 1, ptr %12, align 4
  br label %71

70:                                               ; preds = %40
  store i32 0, ptr %4, align 4
  store i32 1, ptr %12, align 4
  br label %71

71:                                               ; preds = %70, %67, %37, %33, %25
  call void @llvm.lifetime.end.p0(i64 8, ptr %9) #8
  call void @llvm.lifetime.end.p0(i64 8, ptr %8) #8
  %72 = load i32, ptr %4, align 4
  ret i32 %72
}