; Function Attrs: nounwind uwtable
define internal fastcc range(i32 0, 131073) i32 @cache_struct_converter(ptr readonly captures(none) %.32.val, ptr noundef %0, ptr noundef nonnull captures(none) %1) unnamed_addr #0 {
  %3 = alloca ptr, align 8
  call void @llvm.lifetime.start.p0(i64 8, ptr nonnull %3) #7
  %4 = icmp eq ptr %0, null
  br i1 %4, label %5, label %12

5:                                                ; preds = %2
  %6 = load ptr, ptr %1, align 8, !tbaa !19
  store ptr null, ptr %1, align 8, !tbaa !19
  %7 = load i32, ptr %6, align 8, !tbaa !18
  %.not.i = icmp sgt i32 %7, -1
  br i1 %.not.i, label %8, label %Py_DECREF.exit

8:                                                ; preds = %5
  %9 = add nsw i32 %7, -1
  store i32 %9, ptr %6, align 8, !tbaa !18
  %10 = icmp eq i32 %9, 0
  br i1 %10, label %11, label %Py_DECREF.exit

11:                                               ; preds = %8
  tail call void @_Py_Dealloc(ptr noundef nonnull %6) #7
  br label %Py_DECREF.exit

12:                                               ; preds = %2
  %13 = load ptr, ptr %.32.val, align 8, !tbaa !12
  %14 = call i32 @PyDict_GetItemRef(ptr noundef %13, ptr noundef nonnull %0, ptr noundef nonnull %3) #7
  %15 = icmp slt i32 %14, 0
  br i1 %15, label %Py_DECREF.exit, label %16

16:                                               ; preds = %12
  %17 = load ptr, ptr %3, align 8, !tbaa !17
  %.not = icmp eq ptr %17, null
  br i1 %.not, label %19, label %18

18:                                               ; preds = %16
  store ptr %17, ptr %1, align 8, !tbaa !19
  br label %Py_DECREF.exit

19:                                               ; preds = %16
  %20 = getelementptr inbounds nuw i8, ptr %.32.val, i64 8
  %21 = load ptr, ptr %20, align 8, !tbaa !14
  %22 = call ptr @PyObject_CallOneArg(ptr noundef %21, ptr noundef nonnull %0) #7
  store ptr %22, ptr %3, align 8, !tbaa !17
  %.not18 = icmp eq ptr %22, null
  br i1 %.not18, label %Py_DECREF.exit, label %23

23:                                               ; preds = %19
  %24 = load ptr, ptr %.32.val, align 8, !tbaa !12
  %25 = getelementptr i8, ptr %24, i64 16
  %.val19 = load i64, ptr %25, align 8, !tbaa !34
  %26 = icmp sgt i64 %.val19, 99
  br i1 %26, label %27, label %28

27:                                               ; preds = %23
  call void @PyDict_Clear(ptr noundef nonnull %24) #7
  %.pre = load ptr, ptr %.32.val, align 8, !tbaa !12
  %.pre1 = load ptr, ptr %3, align 8, !tbaa !17
  br label %28

28:                                               ; preds = %27, %23
  %29 = phi ptr [ %.pre1, %27 ], [ %22, %23 ]
  %30 = phi ptr [ %.pre, %27 ], [ %24, %23 ]
  %31 = call i32 @PyDict_SetItem(ptr noundef %30, ptr noundef nonnull %0, ptr noundef %29) #7
  %32 = icmp eq i32 %31, -1
  br i1 %32, label %33, label %34

33:                                               ; preds = %28
  call void @PyErr_Clear() #7
  br label %34

34:                                               ; preds = %33, %28
  %35 = load ptr, ptr %3, align 8, !tbaa !17
  store ptr %35, ptr %1, align 8, !tbaa !19
  br label %Py_DECREF.exit

Py_DECREF.exit:                                   ; preds = %11, %8, %5, %19, %12, %34, %18
  %.0 = phi i32 [ 131072, %18 ], [ 131072, %34 ], [ 0, %12 ], [ 0, %19 ], [ 1, %5 ], [ 1, %8 ], [ 1, %11 ]
  call void @llvm.lifetime.end.p0(i64 8, ptr nonnull %3) #7
  ret i32 %.0
}